; Function Attrs: mustprogress nounwind uwtable
define dso_local void @_ZN5clang14TextNodeDumper17VisitRequiresExprEPKNS_12RequiresExprE(ptr nocapture noundef nonnull readonly align 8 dereferenceable(1168) %0, ptr nocapture noundef readonly %1) local_unnamed_addr #0 align 2 {
  %3 = getelementptr inbounds nuw i8, ptr %1, i64 1
  %4 = load i16, ptr %3, align 1
  %5 = and i16 %4, 256
  %.not = icmp eq i16 %5, 0
  br i1 %.not, label %6, label %_ZN4llvm11raw_ostreamlsEPKc.exit

6:                                                ; preds = %2
  %7 = getelementptr inbounds nuw i8, ptr %0, i64 1096
  %8 = load ptr, ptr %7, align 8
  %9 = load i32, ptr %1, align 8
  %10 = and i32 %9, 262144
  %.not3 = icmp eq i32 %10, 0
  %11 = select i1 %.not3, ptr @.str.487, ptr @.str.486
  %12 = select i1 %.not3, i64 12, i64 10
  %13 = getelementptr inbounds nuw i8, ptr %8, i64 24
  %14 = load ptr, ptr %13, align 8
  %15 = getelementptr inbounds nuw i8, ptr %8, i64 32
  %16 = load ptr, ptr %15, align 8
  %17 = ptrtoint ptr %14 to i64
  %18 = ptrtoint ptr %16 to i64
  %19 = sub i64 %17, %18
  %20 = icmp ugt i64 %12, %19
  br i1 %20, label %21, label %23

21:                                               ; preds = %6
  %22 = tail call noundef nonnull align 8 dereferenceable(48) ptr @_ZN4llvm11raw_ostream5writeEPKcm(ptr noundef nonnull align 8 dereferenceable(48) %8, ptr noundef nonnull %11, i64 noundef %12) #18
  br label %_ZN4llvm11raw_ostreamlsEPKc.exit

23:                                               ; preds = %6
  tail call void @llvm.memcpy.p0.p0.i64(ptr noundef nonnull align 1 dereferenceable(10) %16, ptr noundef nonnull align 1 dereferenceable(10) %11, i64 %12, i1 false)
  %24 = load ptr, ptr %15, align 8
  %25 = getelementptr inbounds i8, ptr %24, i64 %12
  store ptr %25, ptr %15, align 8
  br label %_ZN4llvm11raw_ostreamlsEPKc.exit

_ZN4llvm11raw_ostreamlsEPKc.exit:                 ; preds = %23, %21, %2
  ret void
}